target datalayout = "e-m:e-p270:32:32-p271:32:32-p272:64:64-i64:64-i128:128-f80:128-n8:16:32:64-S128"
target triple = "x86_64-pc-linux-gnu"

%struct.prolog_state = type { ptr, i32, i32 }
%struct.encoding = type { [3 x ptr], [2 x ptr], ptr, ptr, ptr, ptr, ptr, ptr, ptr, ptr, ptr, ptr, i32, i8, i8 }

@KW_NDATA = internal constant [6 x i8] c"NDATA\00", align 1

; Function Attrs: nounwind uwtable
define internal i32 @common(ptr noundef %0, i32 noundef %1) #0 {
  %3 = alloca ptr, align 8
  %4 = alloca i32, align 4
  store ptr %0, ptr %3, align 8, !tbaa !4
  store i32 %1, ptr %4, align 4, !tbaa !12
  %5 = load ptr, ptr %3, align 8, !tbaa !4
  %6 = getelementptr inbounds nuw %struct.prolog_state, ptr %5, i32 0, i32 0
  store ptr @error, ptr %6, align 8, !tbaa !9
  ret i32 -1
}

; Function Attrs: nounwind uwtable
define internal i32 @entity5(ptr noundef %0, i32 noundef %1, ptr noundef %2, ptr noundef %3, ptr noundef %4) #0 {
  %6 = alloca i32, align 4
  %7 = alloca ptr, align 8
  %8 = alloca i32, align 4
  %9 = alloca ptr, align 8
  %10 = alloca ptr, align 8
  %11 = alloca ptr, align 8
  store ptr %0, ptr %7, align 8, !tbaa !4
  store i32 %1, ptr %8, align 4, !tbaa !12
  store ptr %2, ptr %9, align 8, !tbaa !13
  store ptr %3, ptr %10, align 8, !tbaa !13
  store ptr %4, ptr %11, align 8, !tbaa !15
  %12 = load i32, ptr %8, align 4, !tbaa !12
  switch i32 %12, label %30 [
    i32 15, label %13
    i32 17, label %14
    i32 18, label %17
  ]

13:                                               ; preds = %5
  store i32 11, ptr %6, align 4
  br label %34

14:                                               ; preds = %5
  %15 = load ptr, ptr %7, align 8, !tbaa !4
  %16 = getelementptr inbounds nuw %struct.prolog_state, ptr %15, i32 0, i32 0
  store ptr @internalSubset, ptr %16, align 8, !tbaa !9
  store i32 15, ptr %6, align 4
  br label %34

17:                                               ; preds = %5
  %18 = load ptr, ptr %11, align 8, !tbaa !15
  %19 = getelementptr inbounds nuw %struct.encoding, ptr %18, i32 0, i32 2
  %20 = load ptr, ptr %19, align 8, !tbaa !17
  %21 = load ptr, ptr %11, align 8, !tbaa !15
  %22 = load ptr, ptr %9, align 8, !tbaa !13
  %23 = load ptr, ptr %10, align 8, !tbaa !13
  %24 = call i32 %20(ptr noundef %21, ptr noundef %22, ptr noundef %23, ptr noundef @KW_NDATA)
  %25 = icmp ne i32 %24, 0
  br i1 %25, label %26, label %29

26:                                               ; preds = %17
  %27 = load ptr, ptr %7, align 8, !tbaa !4
  %28 = getelementptr inbounds nuw %struct.prolog_state, ptr %27, i32 0, i32 0
  store ptr @entity6, ptr %28, align 8, !tbaa !9
  store i32 11, ptr %6, align 4
  br label %34

29:                                               ; preds = %17
  br label %30

30:                                               ; preds = %5, %29
  %31 = load ptr, ptr %7, align 8, !tbaa !4
  %32 = load i32, ptr %8, align 4, !tbaa !12
  %33 = call i32 @common(ptr noundef %31, i32 noundef %32)
  store i32 %33, ptr %6, align 4
  br label %34

34:                                               ; preds = %30, %26, %14, %13
  %35 = load i32, ptr %6, align 4
  ret i32 %35
}