; Function Attrs: nounwind uwtable
define internal range(i32 -1, 16) i32 @entity5(ptr noundef writeonly captures(none) %0, i32 noundef %1, ptr noundef %2, ptr noundef %3, ptr noundef %4) #1 {
  switch i32 %1, label %10 [
    i32 15, label %11
    i32 17, label %.sink.split
    i32 18, label %6
  ]

6:                                                ; preds = %5
  %7 = getelementptr inbounds nuw i8, ptr %4, i64 40
  %8 = load ptr, ptr %7, align 8, !tbaa !10
  %9 = tail call i32 %8(ptr noundef %4, ptr noundef %2, ptr noundef %3, ptr noundef nonnull @KW_NDATA) #5
  %.not = icmp eq i32 %9, 0
  br i1 %.not, label %10, label %.sink.split

10:                                               ; preds = %6, %5
  br label %.sink.split

.sink.split:                                      ; preds = %6, %5, %10
  %error.sink = phi ptr [ @error, %10 ], [ @internalSubset, %5 ], [ @entity6, %6 ]
  %.0.ph = phi i32 [ -1, %10 ], [ 15, %5 ], [ 11, %6 ]
  store ptr %error.sink, ptr %0, align 8, !tbaa !4
  br label %11

11:                                               ; preds = %.sink.split, %5
  %.0 = phi i32 [ 11, %5 ], [ %.0.ph, %.sink.split ]
  ret i32 %.0
}